; ModuleID = '7/1140.c'
source_filename = "7/1140.c"
target datalayout = "e-m:e-p270:32:32-p271:32:32-p272:64:64-i64:64-f80:128-n8:16:32:64-S128"
target triple = "x86_64-pc-linux-gnu"

@.str = private unnamed_addr constant [3 x i8] c"%s\00", align 1
@.str.1 = private unnamed_addr constant [3 x i8] c"%c\00", align 1
@.str.2 = private unnamed_addr constant [2 x i8] c"\0A\00", align 1

; Function Attrs: noinline nounwind uwtable
define dso_local i32 @main() #0 {
  %1 = alloca i32, align 4
  %2 = alloca i32, align 4
  %3 = alloca i32, align 4
  %4 = alloca i32, align 4
  %5 = alloca i32, align 4
  %6 = alloca i32, align 4
  %7 = alloca i32, align 4
  %8 = alloca i32, align 4
  %9 = alloca [256 x i8], align 16
  %10 = alloca [256 x i8], align 16
  %11 = alloca [513 x i8], align 16
  %12 = alloca [256 x [256 x i8]], align 16
  store i32 0, i32* %1, align 4
  %13 = bitcast [256 x i8]* %9 to i8*
  call void @llvm.memset.p0i8.i64(i8* align 16 %13, i8 0, i64 256, i1 false)
  %14 = bitcast [256 x i8]* %10 to i8*
  call void @llvm.memset.p0i8.i64(i8* align 16 %14, i8 0, i64 256, i1 false)
  %15 = bitcast [513 x i8]* %11 to i8*
  call void @llvm.memset.p0i8.i64(i8* align 16 %15, i8 0, i64 513, i1 false)
  %16 = bitcast [256 x [256 x i8]]* %12 to i8*
  call void @llvm.memset.p0i8.i64(i8* align 16 %16, i8 0, i64 65536, i1 false)
  %17 = getelementptr inbounds [256 x i8], [256 x i8]* %9, i64 0, i64 0
  %18 = call i32 (i8*, ...) @__isoc99_scanf(i8* getelementptr inbounds ([3 x i8], [3 x i8]* @.str, i64 0, i64 0), i8* %17)
  %19 = getelementptr inbounds [256 x i8], [256 x i8]* %10, i64 0, i64 0
  %20 = call i32 (i8*, ...) @__isoc99_scanf(i8* getelementptr inbounds ([3 x i8], [3 x i8]* @.str, i64 0, i64 0), i8* %19)
  %21 = getelementptr inbounds [513 x i8], [513 x i8]* %11, i64 0, i64 0
  %22 = call i32 (i8*, ...) @__isoc99_scanf(i8* getelementptr inbounds ([3 x i8], [3 x i8]* @.str, i64 0, i64 0), i8* %21)
  %23 = getelementptr inbounds [256 x i8], [256 x i8]* %9, i64 0, i64 0
  %24 = call i64 @strlen(i8* %23) #5
  %25 = trunc i64 %24 to i32
  store i32 %25, i32* %5, align 4
  %26 = getelementptr inbounds [256 x i8], [256 x i8]* %10, i64 0, i64 0
  %27 = call i64 @strlen(i8* %26) #5
  %28 = trunc i64 %27 to i32
  store i32 %28, i32* %6, align 4
  %29 = getelementptr inbounds [513 x i8], [513 x i8]* %11, i64 0, i64 0
  %30 = call i64 @strlen(i8* %29) #5
  %31 = trunc i64 %30 to i32
  store i32 %31, i32* %7, align 4
  store i32 0, i32* %2, align 4
  br label %32

32:                                               ; preds = %61, %0
  %33 = load i32, i32* %2, align 4
  %34 = load i32, i32* %5, align 4
  %35 = load i32, i32* %6, align 4
  %36 = sub nsw i32 %34, %35
  %37 = add nsw i32 %36, 1
  %38 = icmp slt i32 %33, %37
  br i1 %38, label %39, label %64

39:                                               ; preds = %32
  store i32 0, i32* %3, align 4
  br label %40

40:                                               ; preds = %57, %39
  %41 = load i32, i32* %3, align 4
  %42 = load i32, i32* %6, align 4
  %43 = icmp slt i32 %41, %42
  br i1 %43, label %44, label %60

44:                                               ; preds = %40
  %45 = load i32, i32* %2, align 4
  %46 = load i32, i32* %3, align 4
  %47 = add nsw i32 %45, %46
  %48 = sext i32 %47 to i64
  %49 = getelementptr inbounds [256 x i8], [256 x i8]* %9, i64 0, i64 %48
  %50 = load i8, i8* %49, align 1
  %51 = load i32, i32* %2, align 4
  %52 = sext i32 %51 to i64
  %53 = getelementptr inbounds [256 x [256 x i8]], [256 x [256 x i8]]* %12, i64 0, i64 %52
  %54 = load i32, i32* %3, align 4
  %55 = sext i32 %54 to i64
  %56 = getelementptr inbounds [256 x i8], [256 x i8]* %53, i64 0, i64 %55
  store i8 %50, i8* %56, align 1
  br label %57

57:                                               ; preds = %44
  %58 = load i32, i32* %3, align 4
  %59 = add nsw i32 %58, 1
  store i32 %59, i32* %3, align 4
  br label %40

60:                                               ; preds = %40
  br label %61

61:                                               ; preds = %60
  %62 = load i32, i32* %2, align 4
  %63 = add nsw i32 %62, 1
  store i32 %63, i32* %2, align 4
  br label %32

64:                                               ; preds = %32
  store i32 0, i32* %2, align 4
  br label %65

65:                                               ; preds = %83, %64
  %66 = load i32, i32* %2, align 4
  %67 = load i32, i32* %5, align 4
  %68 = load i32, i32* %6, align 4
  %69 = sub nsw i32 %67, %68
  %70 = add nsw i32 %69, 1
  %71 = icmp slt i32 %66, %70
  br i1 %71, label %72, label %86

72:                                               ; preds = %65
  %73 = load i32, i32* %2, align 4
  %74 = sext i32 %73 to i64
  %75 = getelementptr inbounds [256 x [256 x i8]], [256 x [256 x i8]]* %12, i64 0, i64 %74
  %76 = getelementptr inbounds [256 x i8], [256 x i8]* %75, i64 0, i64 0
  %77 = getelementptr inbounds [256 x i8], [256 x i8]* %10, i64 0, i64 0
  %78 = call i32 @strcmp(i8* %76, i8* %77) #5
  %79 = icmp eq i32 %78, 0
  br i1 %79, label %80, label %82

80:                                               ; preds = %72
  %81 = load i32, i32* %2, align 4
  store i32 %81, i32* %4, align 4
  br label %86

82:                                               ; preds = %72
  br label %83

83:                                               ; preds = %82
  %84 = load i32, i32* %2, align 4
  %85 = add nsw i32 %84, 1
  store i32 %85, i32* %2, align 4
  br label %65

86:                                               ; preds = %80, %65
  %87 = load i32, i32* %2, align 4
  %88 = load i32, i32* %5, align 4
  %89 = load i32, i32* %6, align 4
  %90 = sub nsw i32 %88, %89
  %91 = add nsw i32 %90, 1
  %92 = icmp sge i32 %87, %91
  br i1 %92, label %93, label %109

93:                                               ; preds = %86
  store i32 0, i32* %2, align 4
  br label %94

94:                                               ; preds = %105, %93
  %95 = load i32, i32* %2, align 4
  %96 = load i32, i32* %5, align 4
  %97 = icmp slt i32 %95, %96
  br i1 %97, label %98, label %108

98:                                               ; preds = %94
  %99 = load i32, i32* %2, align 4
  %100 = sext i32 %99 to i64
  %101 = getelementptr inbounds [256 x i8], [256 x i8]* %9, i64 0, i64 %100
  %102 = load i8, i8* %101, align 1
  %103 = sext i8 %102 to i32
  %104 = call i32 (i8*, ...) @printf(i8* getelementptr inbounds ([3 x i8], [3 x i8]* @.str.1, i64 0, i64 0), i32 %103)
  br label %105

105:                                              ; preds = %98
  %106 = load i32, i32* %2, align 4
  %107 = add nsw i32 %106, 1
  store i32 %107, i32* %2, align 4
  br label %94

108:                                              ; preds = %94
  br label %192

109:                                              ; preds = %86
  %110 = load i32, i32* %4, align 4
  %111 = sext i32 %110 to i64
  %112 = getelementptr inbounds [256 x [256 x i8]], [256 x [256 x i8]]* %12, i64 0, i64 %111
  %113 = getelementptr inbounds [256 x i8], [256 x i8]* %112, i64 0, i64 0
  %114 = getelementptr inbounds [513 x i8], [513 x i8]* %11, i64 0, i64 0
  %115 = call i8* @strcpy(i8* %113, i8* %114) #6
  %116 = load i32, i32* %4, align 4
  %117 = icmp ne i32 %116, 0
  br i1 %117, label %118, label %166

118:                                              ; preds = %109
  store i32 0, i32* %2, align 4
  br label %119

119:                                              ; preds = %130, %118
  %120 = load i32, i32* %2, align 4
  %121 = load i32, i32* %4, align 4
  %122 = icmp slt i32 %120, %121
  br i1 %122, label %123, label %133

123:                                              ; preds = %119
  %124 = load i32, i32* %2, align 4
  %125 = sext i32 %124 to i64
  %126 = getelementptr inbounds [256 x i8], [256 x i8]* %9, i64 0, i64 %125
  %127 = load i8, i8* %126, align 1
  %128 = sext i8 %127 to i32
  %129 = call i32 (i8*, ...) @printf(i8* getelementptr inbounds ([3 x i8], [3 x i8]* @.str.1, i64 0, i64 0), i32 %128)
  br label %130

130:                                              ; preds = %123
  %131 = load i32, i32* %2, align 4
  %132 = add nsw i32 %131, 1
  store i32 %132, i32* %2, align 4
  br label %119

133:                                              ; preds = %119
  %134 = load i32, i32* %4, align 4
  %135 = sext i32 %134 to i64
  %136 = getelementptr inbounds [256 x [256 x i8]], [256 x [256 x i8]]* %12, i64 0, i64 %135
  %137 = getelementptr inbounds [256 x i8], [256 x i8]* %136, i64 0, i64 0
  %138 = call i32 (i8*, ...) @printf(i8* getelementptr inbounds ([3 x i8], [3 x i8]* @.str, i64 0, i64 0), i8* %137)
  %139 = load i32, i32* %6, align 4
  %140 = load i32, i32* %7, align 4
  %141 = icmp sgt i32 %139, %140
  br i1 %141, label %142, label %144

142:                                              ; preds = %133
  %143 = load i32, i32* %6, align 4
  store i32 %143, i32* %8, align 4
  br label %146

144:                                              ; preds = %133
  %145 = load i32, i32* %7, align 4
  store i32 %145, i32* %8, align 4
  br label %146

146:                                              ; preds = %144, %142
  %147 = load i32, i32* %4, align 4
  %148 = load i32, i32* %8, align 4
  %149 = add nsw i32 %147, %148
  store i32 %149, i32* %2, align 4
  br label %150

150:                                              ; preds = %161, %146
  %151 = load i32, i32* %2, align 4
  %152 = load i32, i32* %5, align 4
  %153 = icmp slt i32 %151, %152
  br i1 %153, label %154, label %164

154:                                              ; preds = %150
  %155 = load i32, i32* %2, align 4
  %156 = sext i32 %155 to i64
  %157 = getelementptr inbounds [256 x i8], [256 x i8]* %9, i64 0, i64 %156
  %158 = load i8, i8* %157, align 1
  %159 = sext i8 %158 to i32
  %160 = call i32 (i8*, ...) @printf(i8* getelementptr inbounds ([3 x i8], [3 x i8]* @.str.1, i64 0, i64 0), i32 %159)
  br label %161

161:                                              ; preds = %154
  %162 = load i32, i32* %2, align 4
  %163 = add nsw i32 %162, 1
  store i32 %163, i32* %2, align 4
  br label %150

164:                                              ; preds = %150
  %165 = call i32 (i8*, ...) @printf(i8* getelementptr inbounds ([2 x i8], [2 x i8]* @.str.2, i64 0, i64 0))
  br label %191

166:                                              ; preds = %109
  %167 = load i32, i32* %4, align 4
  %168 = sext i32 %167 to i64
  %169 = getelementptr inbounds [256 x [256 x i8]], [256 x [256 x i8]]* %12, i64 0, i64 %168
  %170 = getelementptr inbounds [256 x i8], [256 x i8]* %169, i64 0, i64 0
  %171 = call i32 (i8*, ...) @printf(i8* getelementptr inbounds ([3 x i8], [3 x i8]* @.str, i64 0, i64 0), i8* %170)
  %172 = load i32, i32* %4, align 4
  %173 = load i32, i32* %7, align 4
  %174 = add nsw i32 %172, %173
  store i32 %174, i32* %2, align 4
  br label %175

175:                                              ; preds = %186, %166
  %176 = load i32, i32* %2, align 4
  %177 = load i32, i32* %5, align 4
  %178 = icmp slt i32 %176, %177
  br i1 %178, label %179, label %189

179:                                              ; preds = %175
  %180 = load i32, i32* %2, align 4
  %181 = sext i32 %180 to i64
  %182 = getelementptr inbounds [256 x i8], [256 x i8]* %9, i64 0, i64 %181
  %183 = load i8, i8* %182, align 1
  %184 = sext i8 %183 to i32
  %185 = call i32 (i8*, ...) @printf(i8* getelementptr inbounds ([3 x i8], [3 x i8]* @.str.1, i64 0, i64 0), i32 %184)
  br label %186

186:                                              ; preds = %179
  %187 = load i32, i32* %2, align 4
  %188 = add nsw i32 %187, 1
  store i32 %188, i32* %2, align 4
  br label %175

189:                                              ; preds = %175
  %190 = call i32 (i8*, ...) @printf(i8* getelementptr inbounds ([2 x i8], [2 x i8]* @.str.2, i64 0, i64 0))
  br label %191

191:                                              ; preds = %189, %164
  br label %192

192:                                              ; preds = %191, %108
  ret i32 0
}

; Function Attrs: argmemonly nounwind willreturn
declare void @llvm.memset.p0i8.i64(i8* nocapture writeonly, i8, i64, i1 immarg) #1

declare dso_local i32 @__isoc99_scanf(i8*, ...) #2

; Function Attrs: nounwind readonly
declare dso_local i64 @strlen(i8*) #3

; Function Attrs: nounwind readonly
declare dso_local i32 @strcmp(i8*, i8*) #3

declare dso_local i32 @printf(i8*, ...) #2

; Function Attrs: nounwind
declare dso_local i8* @strcpy(i8*, i8*) #4


!llvm.module.flags = !{!0}
!llvm.ident = !{!1}

!0 = !{i32 1, !"wchar_size", i32 4}
!1 = !{!"clang version 10.0.0-4ubuntu1 "}
